-----BEGIN PRIVATE KEY-----
MIIEvgIBADANBgkqhkiG9w0BAQEFAASCBKgwggSkAgEAAoIBAQClKzgwvSxEXBn7
Ax/W82HL7MjOBCMVq+Sv+WtcWDw7odtQYHTV6v7R4oGl0DFAR3nexuArs51rdvzW
KZMW1GvMqALN5QmKg0gbY9RqvUFIBOCAKimu/6oYp2TXmBw71tqtZEz9t+VR0Sfl
xwaqWEBWugM/9CmLPVKCY7EGnwk1rt5lf5Ql17Eh1Zgje6aEcs131RVArOGva9Ur
ZU1iU2T/o+2Nz1JaA+fPsmrbcJEadqdTWh86zisRNXY8SYVukY0ksr7kRQMVPSze
UlW8zjrHRLTk7iD7mX+/mfCRjAf+Y7g2F8lXk03seEuOe9gjweQoAEQg1YhO2b9D
8A7j95CJAgMBAAECggEALg9TaCQZCCc3B4zjgCn3B8tMZEc7EXwSFhDUI7hnc6m7
YzrC2jTiQt2LkhXw5iAImFuVgBpit+lCsOZ/IkqylSv1PD22322k2h6Iygtk/RR/
Fr6rSSX65U0pDgZZOUa9TMU/wzFZPeu52JYcAb0ClCzjYx5Px4ieTcZHQ7Vt+A4N
Il2sUzGqKjLcgdWHjsOvkPNETO+J+cxqV5sNmvDmPVgFaXfaXtBKLdeV2SYwtfwg
0+A0Sbl1aCT5OYtM3Vbt2OkPBxorZRO0K50qMZmp7vimS2ZOLikoQFixHYJAYUHF
b3yA+yillGwqUvMF+jkG7Vl/rGcpelH4k635CGV+QQKBgQDW6wlRMU7rTWuTiny+
BaYMYJFGBSaOxStgOAa9dqS7UPtyYb0u7NvKwKCZopLGptk+3JsPo8yoNqlYLdlv
BXNk7MCdRG+gCLKd0wVPB3wwbEgM98WgNqaGVo2S58bjy5UVYhWyPG3aFQiSx8AV
cp+QDqEJhytJsPVXBxB03/oKHQKBgQDEvbbh1+5kSKlZh24NPykdXO0dKsYoM54G
SqTrKknZRrD1hTJNPkdO5T8mUjD4DrGKFOdmaLNq9mq0WVef9Gki5eCmowKuFVm9
RzvpbAkYolUqTpXoMZmhB8R1jprBpiRvmW4NlfDUiLCthtczvhdGSFGnxo+o/xyQ
gAR1kCQ0XQKBgQCNJ+oCrcQLv9m8GeU8WTFqR7KirpdYhh+rHqEup1IixVmhEpjS
zTa+wC27Oo/0cXmWVAZ0Cz1L7jrjc5mv1YCo9Oa9ZEl8broB9qsx8NScaUIZYlMm
mz5cVVS+/AQhcYEFflqJqi7sYYwz+4YpkBNE5pbWTzUbPWKmOjmQydrL8QKBgQCF
m/1GFNm92ya/OV0AvAMVANW6uCDIjn1j8m9bkWWDnCFzK5jEomXU65TeVnURERF7
H8UiZDpsippejkoWw+pem9Tb9dpNFQzToTvLwuXOh/fkemgNvxmBJYBDAayRlF4s
N/toWIqsG4Q45Fjjt9Wgkl553TwU3eOtMnNUz6X2tQKBgBwgdKBn+f8bMWG/yapv
zRNnr6iwxaxhbZ0l7QQ8EtMPmvSJAvkNvClTe41Hzxw75RfGblLKfS74xzYUGXu4
IqXt6wzOnOcUdpI3HSpPxqmIvlZqVlIqsgznDkgip7hsN4aeVXAyAbYFdF79XM3d
A/MuCQ1qein8e6VKDFMHXJHD
-----END PRIVATE KEY-----
Certificate:
    Data:
        Version: 3 (0x2)
        Serial Number: 1 (0x1)
    Signature Algorithm: sha1WithRSAEncryption
        Issuer: C=NL, ST=Brabant, O=Bob Rathbone, OU=Consultancy, CN=Bob
        Validity
            Not Before: Aug 20 11:52:11 2012 GMT
            Not After : Aug 20 11:52:11 2013 GMT
        Subject: C=NL, ST=Brabant, O=Bob Rathbone, OU=Consultancy, CN=Bob
        Subject Public Key Info:
            Public Key Algorithm: rsaEncryption
                Public-Key: (2048 bit)
                Modulus:
                    00:a5:2b:38:30:bd:2c:44:5c:19:fb:03:1f:d6:f3:
                    61:cb:ec:c8:ce:04:23:15:ab:e4:af:f9:6b:5c:58:
                    3c:3b:a1:db:50:60:74:d5:ea:fe:d1:e2:81:a5:d0:
                    31:40:47:79:de:c6:e0:2b:b3:9d:6b:76:fc:d6:29:
                    93:16:d4:6b:cc:a8:02:cd:e5:09:8a:83:48:1b:63:
                    d4:6a:bd:41:48:04:e0:80:2a:29:ae:ff:aa:18:a7:
                    64:d7:98:1c:3b:d6:da:ad:64:4c:fd:b7:e5:51:d1:
                    27:e5:c7:06:aa:58:40:56:ba:03:3f:f4:29:8b:3d:
                    52:82:63:b1:06:9f:09:35:ae:de:65:7f:94:25:d7:
                    b1:21:d5:98:23:7b:a6:84:72:cd:77:d5:15:40:ac:
                    e1:af:6b:d5:2b:65:4d:62:53:64:ff:a3:ed:8d:cf:
                    52:5a:03:e7:cf:b2:6a:db:70:91:1a:76:a7:53:5a:
                    1f:3a:ce:2b:11:35:76:3c:49:85:6e:91:8d:24:b2:
                    be:e4:45:03:15:3d:2c:de:52:55:bc:ce:3a:c7:44:
                    b4:e4:ee:20:fb:99:7f:bf:99:f0:91:8c:07:fe:63:
                    b8:36:17:c9:57:93:4d:ec:78:4b:8e:7b:d8:23:c1:
                    e4:28:00:44:20:d5:88:4e:d9:bf:43:f0:0e:e3:f7:
                    90:89
                Exponent: 65537 (0x10001)
        X509v3 extensions:
            X509v3 Basic Constraints: 
                CA:FALSE
            Netscape Comment: 
                OpenSSL Generated Certificate
            X509v3 Subject Key Identifier: 
                9C:A1:A8:05:D8:E5:73:58:97:78:48:B6:58:06:07:F2:54:DF:6F:6C
            X509v3 Authority Key Identifier: 
                keyid:9F:90:BA:A2:F0:B6:0D:10:0D:2D:A6:EF:38:39:56:0B:DA:9A:49:7D

    Signature Algorithm: sha1WithRSAEncryption
         0a:58:40:7e:f7:4a:1e:58:de:21:59:b8:a3:28:18:67:ba:11:
         43:61:16:f4:b2:85:41:e1:1e:e5:f4:70:8b:67:db:1c:1c:00:
         bf:13:bd:51:fb:b5:48:ef:c9:ed:34:94:8e:5f:b8:bf:ef:f5:
         73:1d:0b:0b:dc:fd:b7:f3:70:e2:a6:c5:f2:a0:b8:b3:68:5c:
         28:e5:25:7e:a0:0d:c7:7e:49:e3:81:e4:13:a4:bc:ec:90:f2:
         47:b1:fe:89:97:0e:48:09:f3:8d:97:42:1e:3f:3a:3d:fa:ae:
         2e:4c:37:a2:6f:51:e0:38:6b:7d:ca:49:1c:32:0b:82:9e:80:
         0f:86:77:3e:70:1f:b6:6f:5e:94:20:8c:f1:b2:f8:1a:e5:27:
         f0:48:72:3b:f8:d9:8a:53:b4:54:da:79:83:03:9c:37:66:ca:
         22:c8:2b:05:97:10:55:6e:db:4b:04:a1:b4:c0:a1:e0:d8:55:
         7b:c1:9e:62:9e:94:6d:e5:c7:a1:95:96:9b:93:49:d2:c5:08:
         ca:06:8b:a6:44:ff:68:79:a3:1b:17:a6:4a:fb:f2:20:03:d5:
         de:34:e1:06:21:15:2e:f4:88:49:0c:3e:7f:7f:8f:c7:07:13:
         64:2f:0f:eb:7e:c6:02:f1:ae:95:d4:89:60:b5:ea:a3:4e:4a:
         55:ce:9c:0d
-----BEGIN CERTIFICATE-----
MIIDqjCCApKgAwIBAgIBATANBgkqhkiG9w0BAQUFADBaMQswCQYDVQQGEwJOTDEQ
MA4GA1UECAwHQnJhYmFudDEVMBMGA1UECgwMQm9iIFJhdGhib25lMRQwEgYDVQQL
DAtDb25zdWx0YW5jeTEMMAoGA1UEAwwDQm9iMB4XDTEyMDgyMDExNTIxMVoXDTEz
MDgyMDExNTIxMVowWjELMAkGA1UEBhMCTkwxEDAOBgNVBAgMB0JyYWJhbnQxFTAT
BgNVBAoMDEJvYiBSYXRoYm9uZTEUMBIGA1UECwwLQ29uc3VsdGFuY3kxDDAKBgNV
BAMMA0JvYjCCASIwDQYJKoZIhvcNAQEBBQADggEPADCCAQoCggEBAKUrODC9LERc
GfsDH9bzYcvsyM4EIxWr5K/5a1xYPDuh21BgdNXq/tHigaXQMUBHed7G4CuznWt2
/NYpkxbUa8yoAs3lCYqDSBtj1Gq9QUgE4IAqKa7/qhinZNeYHDvW2q1kTP235VHR
J+XHBqpYQFa6Az/0KYs9UoJjsQafCTWu3mV/lCXXsSHVmCN7poRyzXfVFUCs4a9r
1StlTWJTZP+j7Y3PUloD58+yattwkRp2p1NaHzrOKxE1djxJhW6RjSSyvuRFAxU9
LN5SVbzOOsdEtOTuIPuZf7+Z8JGMB/5juDYXyVeTTex4S4572CPB5CgARCDViE7Z
v0PwDuP3kIkCAwEAAaN7MHkwCQYDVR0TBAIwADAsBglghkgBhvhCAQ0EHxYdT3Bl
blNTTCBHZW5lcmF0ZWQgQ2VydGlmaWNhdGUwHQYDVR0OBBYEFJyhqAXY5XNYl3hI
tlgGB/JU329sMB8GA1UdIwQYMBaAFJ+QuqLwtg0QDS2m7zg5Vgvamkl9MA0GCSqG
SIb3DQEBBQUAA4IBAQAKWEB+90oeWN4hWbijKBhnuhFDYRb0soVB4R7l9HCLZ9sc
HAC/E71R+7VI78ntNJSOX7i/7/VzHQsL3P2383DipsXyoLizaFwo5SV+oA3Hfknj
geQTpLzskPJHsf6Jlw5ICfONl0IePzo9+q4uTDeib1HgOGt9ykkcMguCnoAPhnc+
cB+2b16UIIzxsvga5SfwSHI7+NmKU7RU2nmDA5w3ZsoiyCsFlxBVbttLBKG0wKHg
2FV7wZ5inpRt5cehlZabk0nSxQjKBoumRP9oeaMbF6ZK+/IgA9XeNOEGIRUu9IhJ
DD5/f4/HBxNkLw/rfsYC8a6V1IlgteqjTkpVzpwN
-----END CERTIFICATE-----
